target datalayout = "e-m:e-p270:32:32-p271:32:32-p272:64:64-i64:64-i128:128-f80:128-n8:16:32:64-S128"
target triple = "x86_64-pc-linux-gnu"

%struct.anon.806 = type { i64 }

@.str.80 = private unnamed_addr constant [39 x i8] c"../cpython/Modules/_testinternalcapi.c\00", align 1
@PyExc_ValueError = external global ptr, align 8
@.str.212 = private unnamed_addr constant [58 x i8] c"r == _Py_ADD_PENDING_SUCCESS || r == _Py_ADD_PENDING_FULL\00", align 1
@.str.213 = private unnamed_addr constant [19 x i8] c"O:pending_identify\00", align 1
@.str.214 = private unnamed_addr constant [22 x i8] c"interpreter not found\00", align 1
@pending_identify_result = internal global %struct.anon.806 zeroinitializer, align 8
@__PRETTY_FUNCTION__.pending_identify = private unnamed_addr constant [51 x i8] c"PyObject *pending_identify(PyObject *, PyObject *)\00", align 1

; Function Attrs: nounwind uwtable
define internal ptr @pending_identify(ptr noundef %0, ptr noundef %1) #0 {
  %3 = alloca ptr, align 8
  %4 = alloca ptr, align 8
  %5 = alloca ptr, align 8
  %6 = alloca ptr, align 8
  %7 = alloca i32, align 4
  %8 = alloca ptr, align 8
  %9 = alloca ptr, align 8
  %10 = alloca i32, align 4
  %11 = alloca ptr, align 8
  %12 = alloca ptr, align 8
  store ptr %0, ptr %4, align 8, !tbaa !3
  store ptr %1, ptr %5, align 8, !tbaa !3
  call void @llvm.lifetime.start.p0(i64 8, ptr %6) #10
  %13 = load ptr, ptr %5, align 8, !tbaa !3
  %14 = call i32 (ptr, ptr, ...) @PyArg_ParseTuple(ptr noundef %13, ptr noundef @.str.213, ptr noundef %6)
  %15 = icmp ne i32 %14, 0
  br i1 %15, label %17, label %16

16:                                               ; preds = %2
  store ptr null, ptr %3, align 8
  store i32 1, ptr %7, align 4
  br label %69

17:                                               ; preds = %2
  call void @llvm.lifetime.start.p0(i64 8, ptr %8) #10
  %18 = load ptr, ptr %6, align 8, !tbaa !3
  %19 = call ptr @_PyInterpreterState_LookUpIDObject(ptr noundef %18)
  store ptr %19, ptr %8, align 8, !tbaa !49
  %20 = load ptr, ptr %8, align 8, !tbaa !49
  %21 = icmp eq ptr %20, null
  br i1 %21, label %22, label %28

22:                                               ; preds = %17
  %23 = call ptr @PyErr_Occurred()
  %24 = icmp ne ptr %23, null
  br i1 %24, label %27, label %25

25:                                               ; preds = %22
  %26 = load ptr, ptr @PyExc_ValueError, align 8, !tbaa !3
  call void @PyErr_SetString(ptr noundef %26, ptr noundef @.str.214)
  br label %27

27:                                               ; preds = %25, %22
  store ptr null, ptr %3, align 8
  store i32 1, ptr %7, align 4
  br label %68

28:                                               ; preds = %17
  store i64 -1, ptr @pending_identify_result, align 8, !tbaa !137
  call void @llvm.lifetime.start.p0(i64 8, ptr %9) #10
  %29 = call ptr @PyThread_allocate_lock()
  store ptr %29, ptr %9, align 8, !tbaa !8
  %30 = load ptr, ptr %9, align 8, !tbaa !8
  %31 = icmp eq ptr %30, null
  br i1 %31, label %32, label %33

32:                                               ; preds = %28
  store ptr null, ptr %3, align 8
  store i32 1, ptr %7, align 4
  br label %67

33:                                               ; preds = %28
  %34 = load ptr, ptr %9, align 8, !tbaa !8
  %35 = call i32 @PyThread_acquire_lock(ptr noundef %34, i32 noundef 1)
  call void @llvm.lifetime.start.p0(i64 4, ptr %10) #10
  br label %36

36:                                               ; preds = %51, %33
  call void @llvm.lifetime.start.p0(i64 8, ptr %11) #10
  %37 = call ptr @PyEval_SaveThread()
  store ptr %37, ptr %11, align 8, !tbaa !9
  %38 = load ptr, ptr %8, align 8, !tbaa !49
  %39 = load ptr, ptr %9, align 8, !tbaa !8
  %40 = call i32 @_PyEval_AddPendingCall(ptr noundef %38, ptr noundef @_pending_identify_callback, ptr noundef %39, i32 noundef 0)
  store i32 %40, ptr %10, align 4, !tbaa !26
  %41 = load ptr, ptr %11, align 8, !tbaa !9
  call void @PyEval_RestoreThread(ptr noundef %41)
  call void @llvm.lifetime.end.p0(i64 8, ptr %11) #10
  %42 = load i32, ptr %10, align 4, !tbaa !26
  %43 = icmp eq i32 %42, 0
  br i1 %43, label %47, label %44

44:                                               ; preds = %36
  %45 = load i32, ptr %10, align 4, !tbaa !26
  %46 = icmp eq i32 %45, -1
  br i1 %46, label %47, label %48

47:                                               ; preds = %44, %36
  br label %50

48:                                               ; preds = %44
  call void @__assert_fail(ptr noundef @.str.212, ptr noundef @.str.80, i32 noundef 1100, ptr noundef @__PRETTY_FUNCTION__.pending_identify) #11
  unreachable

49:                                               ; No predecessors!
  br label %50

50:                                               ; preds = %49, %47
  br label %51

51:                                               ; preds = %50
  %52 = load i32, ptr %10, align 4, !tbaa !26
  %53 = icmp eq i32 %52, -1
  br i1 %53, label %36, label %54, !llvm.loop !139

54:                                               ; preds = %51
  %55 = load ptr, ptr %9, align 8, !tbaa !8
  %56 = call i32 @PyThread_acquire_lock(ptr noundef %55, i32 noundef 1)
  %57 = load ptr, ptr %9, align 8, !tbaa !8
  call void @PyThread_release_lock(ptr noundef %57)
  %58 = load ptr, ptr %9, align 8, !tbaa !8
  call void @PyThread_free_lock(ptr noundef %58)
  call void @llvm.lifetime.start.p0(i64 8, ptr %12) #10
  %59 = load i64, ptr @pending_identify_result, align 8, !tbaa !137
  %60 = call ptr @PyLong_FromLongLong(i64 noundef %59)
  store ptr %60, ptr %12, align 8, !tbaa !3
  store i64 -1, ptr @pending_identify_result, align 8, !tbaa !137
  %61 = load ptr, ptr %12, align 8, !tbaa !3
  %62 = icmp eq ptr %61, null
  br i1 %62, label %63, label %64

63:                                               ; preds = %54
  store ptr null, ptr %3, align 8
  store i32 1, ptr %7, align 4
  br label %66

64:                                               ; preds = %54
  %65 = load ptr, ptr %12, align 8, !tbaa !3
  store ptr %65, ptr %3, align 8
  store i32 1, ptr %7, align 4
  br label %66

66:                                               ; preds = %64, %63
  call void @llvm.lifetime.end.p0(i64 8, ptr %12) #10
  call void @llvm.lifetime.end.p0(i64 4, ptr %10) #10
  br label %67

67:                                               ; preds = %66, %32
  call void @llvm.lifetime.end.p0(i64 8, ptr %9) #10
  br label %68

68:                                               ; preds = %67, %27
  call void @llvm.lifetime.end.p0(i64 8, ptr %8) #10
  br label %69

69:                                               ; preds = %68, %16
  call void @llvm.lifetime.end.p0(i64 8, ptr %6) #10
  %70 = load ptr, ptr %3, align 8
  ret ptr %70
}