; Function Attrs: nounwind uwtable
define internal ptr @pending_identify(ptr readnone captures(none) %0, ptr noundef %1) #0 {
  %3 = alloca ptr, align 8
  call void @llvm.lifetime.start.p0(i64 8, ptr nonnull %3) #11
  %4 = call i32 (ptr, ptr, ...) @PyArg_ParseTuple(ptr noundef %1, ptr noundef nonnull @.str.213, ptr noundef nonnull %3) #11
  %.not = icmp eq i32 %4, 0
  br i1 %.not, label %29, label %5

5:                                                ; preds = %2
  %6 = load ptr, ptr %3, align 8, !tbaa !9
  %7 = call ptr @_PyInterpreterState_LookUpIDObject(ptr noundef %6) #11
  %8 = icmp eq ptr %7, null
  br i1 %8, label %9, label %13

9:                                                ; preds = %5
  %10 = call ptr @PyErr_Occurred() #11
  %.not19 = icmp eq ptr %10, null
  br i1 %.not19, label %11, label %29

11:                                               ; preds = %9
  %12 = load ptr, ptr @PyExc_ValueError, align 8, !tbaa !9
  call void @PyErr_SetString(ptr noundef %12, ptr noundef nonnull @.str.214) #11
  br label %29

13:                                               ; preds = %5
  store i64 -1, ptr @pending_identify_result.0, align 8, !tbaa !153
  %14 = call ptr @PyThread_allocate_lock() #11
  %15 = icmp eq ptr %14, null
  br i1 %15, label %29, label %16

16:                                               ; preds = %13
  %17 = call i32 @PyThread_acquire_lock(ptr noundef nonnull %14, i32 noundef 1) #11
  br label %18

18:                                               ; preds = %23, %16
  %19 = call ptr @PyEval_SaveThread() #11
  %20 = call i32 @_PyEval_AddPendingCall(ptr noundef nonnull %7, ptr noundef nonnull @_pending_identify_callback, ptr noundef nonnull %14, i32 noundef 0) #11
  call void @PyEval_RestoreThread(ptr noundef %19) #11
  %21 = add i32 %20, 1
  %or.cond = icmp ult i32 %21, 2
  br i1 %or.cond, label %23, label %22

22:                                               ; preds = %18
  call void @__assert_fail(ptr noundef nonnull @.str.212, ptr noundef nonnull @.str.80, i32 noundef 1100, ptr noundef nonnull @__PRETTY_FUNCTION__.pending_identify) #12
  unreachable

23:                                               ; preds = %18
  %24 = icmp eq i32 %20, -1
  br i1 %24, label %18, label %25, !llvm.loop !155

25:                                               ; preds = %23
  %26 = call i32 @PyThread_acquire_lock(ptr noundef nonnull %14, i32 noundef 1) #11
  call void @PyThread_release_lock(ptr noundef nonnull %14) #11
  call void @PyThread_free_lock(ptr noundef nonnull %14) #11
  %27 = load i64, ptr @pending_identify_result.0, align 8, !tbaa !153
  %28 = call ptr @PyLong_FromLongLong(i64 noundef %27) #11
  store i64 -1, ptr @pending_identify_result.0, align 8, !tbaa !153
  br label %29

29:                                               ; preds = %11, %9, %13, %25, %2
  %.0 = phi ptr [ null, %2 ], [ null, %11 ], [ null, %9 ], [ %28, %25 ], [ null, %13 ]
  call void @llvm.lifetime.end.p0(i64 8, ptr nonnull %3) #11
  ret ptr %.0
}